
simple_sum.elf:     file format elf32-littleriscv


Disassembly of section .plt:

000102f0 <_PROCEDURE_LINKAGE_TABLE_>:
   102f0:	97 23 00 00 33 03 c3 41 03 ae 83 d0 13 03 43 fd     .#..3..A......C.
   10300:	93 82 83 d0 13 53 23 00 83 a2 42 00 67 00 0e 00     .....S#...B.g...

00010310 <__libc_start_main@plt>:
   10310:	00002e17          	auipc	t3,0x2
   10314:	cf0e2e03          	lw	t3,-784(t3) # 12000 <__libc_start_main@GLIBC_2.34>
   10318:	000e0367          	jalr	t1,t3
   1031c:	00000013          	nop

00010320 <printf@plt>:
   10320:	00002e17          	auipc	t3,0x2
   10324:	ce4e2e03          	lw	t3,-796(t3) # 12004 <printf@GLIBC_2.33>
   10328:	000e0367          	jalr	t1,t3
   1032c:	00000013          	nop

Disassembly of section .text:

00010330 <main>:
   10330:	6605                	lui	a2,0x1
   10332:	1141                	addi	sp,sp,-16
   10334:	3ba60613          	addi	a2,a2,954 # 13ba <__abi_tag-0xedde>
   10338:	06400593          	li	a1,100
   1033c:	00000517          	auipc	a0,0x0
   10340:	0c050513          	addi	a0,a0,192 # 103fc <_IO_stdin_used+0x4>
   10344:	c606                	sw	ra,12(sp)
   10346:	3fe9                	jal	10320 <printf@plt>
   10348:	40b2                	lw	ra,12(sp)
   1034a:	4501                	li	a0,0
   1034c:	0141                	addi	sp,sp,16
   1034e:	8082                	ret

00010350 <_start>:
   10350:	2005                	jal	10370 <load_gp>
   10352:	87aa                	mv	a5,a0
   10354:	00000517          	auipc	a0,0x0
   10358:	01a50513          	addi	a0,a0,26 # 1036e <__wrap_main>
   1035c:	4582                	lw	a1,0(sp)
   1035e:	0050                	addi	a2,sp,4
   10360:	ff017113          	andi	sp,sp,-16
   10364:	4681                	li	a3,0
   10366:	4701                	li	a4,0
   10368:	880a                	mv	a6,sp
   1036a:	375d                	jal	10310 <__libc_start_main@plt>
   1036c:	9002                	ebreak

0001036e <__wrap_main>:
   1036e:	b7c9                	j	10330 <main>

00010370 <load_gp>:
   10370:	00002197          	auipc	gp,0x2
   10374:	49818193          	addi	gp,gp,1176 # 12808 <__global_pointer$>
   10378:	8082                	ret
	...

0001037c <deregister_tm_clones>:
   1037c:	6549                	lui	a0,0x12
   1037e:	6749                	lui	a4,0x12
   10380:	00850793          	addi	a5,a0,8 # 12008 <__TMC_END__>
   10384:	00870713          	addi	a4,a4,8 # 12008 <__TMC_END__>
   10388:	00f70863          	beq	a4,a5,10398 <deregister_tm_clones+0x1c>
   1038c:	00000793          	li	a5,0
   10390:	c781                	beqz	a5,10398 <deregister_tm_clones+0x1c>
   10392:	00850513          	addi	a0,a0,8
   10396:	8782                	jr	a5
   10398:	8082                	ret

0001039a <register_tm_clones>:
   1039a:	6549                	lui	a0,0x12
   1039c:	00850793          	addi	a5,a0,8 # 12008 <__TMC_END__>
   103a0:	6749                	lui	a4,0x12
   103a2:	00870593          	addi	a1,a4,8 # 12008 <__TMC_END__>
   103a6:	8d9d                	sub	a1,a1,a5
   103a8:	4025d793          	srai	a5,a1,0x2
   103ac:	81fd                	srli	a1,a1,0x1f
   103ae:	95be                	add	a1,a1,a5
   103b0:	8585                	srai	a1,a1,0x1
   103b2:	c599                	beqz	a1,103c0 <register_tm_clones+0x26>
   103b4:	00000793          	li	a5,0
   103b8:	c781                	beqz	a5,103c0 <register_tm_clones+0x26>
   103ba:	00850513          	addi	a0,a0,8
   103be:	8782                	jr	a5
   103c0:	8082                	ret

000103c2 <__do_global_dtors_aux>:
   103c2:	1141                	addi	sp,sp,-16
   103c4:	c422                	sw	s0,8(sp)
   103c6:	6449                	lui	s0,0x12
   103c8:	00c44783          	lbu	a5,12(s0) # 1200c <completed.0>
   103cc:	c606                	sw	ra,12(sp)
   103ce:	e789                	bnez	a5,103d8 <__do_global_dtors_aux+0x16>
   103d0:	3775                	jal	1037c <deregister_tm_clones>
   103d2:	4785                	li	a5,1
   103d4:	00f40623          	sb	a5,12(s0)
   103d8:	40b2                	lw	ra,12(sp)
   103da:	4422                	lw	s0,8(sp)
   103dc:	0141                	addi	sp,sp,16
   103de:	8082                	ret

000103e0 <frame_dummy>:
   103e0:	bf6d                	j	1039a <register_tm_clones>

000103e2 <calculate_sum>:
   103e2:	872a                	mv	a4,a0
   103e4:	c901                	beqz	a0,103f4 <calculate_sum+0x12>
   103e6:	4785                	li	a5,1
   103e8:	4501                	li	a0,0
   103ea:	953e                	add	a0,a0,a5
   103ec:	0785                	addi	a5,a5,1
   103ee:	fef77ee3          	bgeu	a4,a5,103ea <calculate_sum+0x8>
   103f2:	8082                	ret
   103f4:	4501                	li	a0,0
   103f6:	8082                	ret
