
bit_shift.elf:     file format elf32-littleriscv


Disassembly of section .plt:

00010340 <_PROCEDURE_LINKAGE_TABLE_>:
   10340:	97 23 00 00 33 03 c3 41 03 ae 83 cb 13 03 43 fd     .#..3..A......C.
   10350:	93 82 83 cb 13 53 23 00 83 a2 42 00 67 00 0e 00     .....S#...B.g...

00010360 <__libc_start_main@plt>:
   10360:	00002e17          	auipc	t3,0x2
   10364:	ca0e2e03          	lw	t3,-864(t3) # 12000 <__libc_start_main@GLIBC_2.34>
   10368:	000e0367          	jalr	t1,t3
   1036c:	00000013          	nop

00010370 <printf@plt>:
   10370:	00002e17          	auipc	t3,0x2
   10374:	c94e2e03          	lw	t3,-876(t3) # 12004 <printf@GLIBC_2.33>
   10378:	000e0367          	jalr	t1,t3
   1037c:	00000013          	nop

00010380 <free@plt>:
   10380:	00002e17          	auipc	t3,0x2
   10384:	c88e2e03          	lw	t3,-888(t3) # 12008 <free@GLIBC_2.33>
   10388:	000e0367          	jalr	t1,t3
   1038c:	00000013          	nop

00010390 <malloc@plt>:
   10390:	00002e17          	auipc	t3,0x2
   10394:	c7ce2e03          	lw	t3,-900(t3) # 1200c <malloc@GLIBC_2.33>
   10398:	000e0367          	jalr	t1,t3
   1039c:	00000013          	nop

Disassembly of section .text:

000103a0 <_start>:
   103a0:	2005                	jal	103c0 <load_gp>
   103a2:	87aa                	mv	a5,a0
   103a4:	00000517          	auipc	a0,0x0
   103a8:	01a50513          	addi	a0,a0,26 # 103be <__wrap_main>
   103ac:	4582                	lw	a1,0(sp)
   103ae:	0050                	addi	a2,sp,4
   103b0:	ff017113          	andi	sp,sp,-16
   103b4:	4681                	li	a3,0
   103b6:	4701                	li	a4,0
   103b8:	880a                	mv	a6,sp
   103ba:	375d                	jal	10360 <__libc_start_main@plt>
   103bc:	9002                	ebreak

000103be <__wrap_main>:
   103be:	a895                	j	10432 <main>

000103c0 <load_gp>:
   103c0:	00002197          	auipc	gp,0x2
   103c4:	45018193          	addi	gp,gp,1104 # 12810 <__global_pointer$>
   103c8:	8082                	ret
	...

000103cc <deregister_tm_clones>:
   103cc:	6549                	lui	a0,0x12
   103ce:	6749                	lui	a4,0x12
   103d0:	01050793          	addi	a5,a0,16 # 12010 <__TMC_END__>
   103d4:	01070713          	addi	a4,a4,16 # 12010 <__TMC_END__>
   103d8:	00f70863          	beq	a4,a5,103e8 <deregister_tm_clones+0x1c>
   103dc:	00000793          	li	a5,0
   103e0:	c781                	beqz	a5,103e8 <deregister_tm_clones+0x1c>
   103e2:	01050513          	addi	a0,a0,16
   103e6:	8782                	jr	a5
   103e8:	8082                	ret

000103ea <register_tm_clones>:
   103ea:	6549                	lui	a0,0x12
   103ec:	01050793          	addi	a5,a0,16 # 12010 <__TMC_END__>
   103f0:	6749                	lui	a4,0x12
   103f2:	01070593          	addi	a1,a4,16 # 12010 <__TMC_END__>
   103f6:	8d9d                	sub	a1,a1,a5
   103f8:	4025d793          	srai	a5,a1,0x2
   103fc:	81fd                	srli	a1,a1,0x1f
   103fe:	95be                	add	a1,a1,a5
   10400:	8585                	srai	a1,a1,0x1
   10402:	c599                	beqz	a1,10410 <register_tm_clones+0x26>
   10404:	00000793          	li	a5,0
   10408:	c781                	beqz	a5,10410 <register_tm_clones+0x26>
   1040a:	01050513          	addi	a0,a0,16
   1040e:	8782                	jr	a5
   10410:	8082                	ret

00010412 <__do_global_dtors_aux>:
   10412:	1141                	addi	sp,sp,-16
   10414:	c422                	sw	s0,8(sp)
   10416:	6449                	lui	s0,0x12
   10418:	01444783          	lbu	a5,20(s0) # 12014 <completed.0>
   1041c:	c606                	sw	ra,12(sp)
   1041e:	e789                	bnez	a5,10428 <__do_global_dtors_aux+0x16>
   10420:	3775                	jal	103cc <deregister_tm_clones>
   10422:	4785                	li	a5,1
   10424:	00f40a23          	sb	a5,20(s0)
   10428:	40b2                	lw	ra,12(sp)
   1042a:	4422                	lw	s0,8(sp)
   1042c:	0141                	addi	sp,sp,16
   1042e:	8082                	ret

00010430 <frame_dummy>:
   10430:	bf6d                	j	103ea <register_tm_clones>

00010432 <main>:
   10432:	1101                	addi	sp,sp,-32
   10434:	ce06                	sw	ra,28(sp)
   10436:	cc22                	sw	s0,24(sp)
   10438:	1000                	addi	s0,sp,32
   1043a:	003d17b7          	lui	a5,0x3d1
   1043e:	90078513          	addi	a0,a5,-1792 # 3d0900 <__global_pointer$+0x3be0f0>
   10442:	37b9                	jal	10390 <malloc@plt>
   10444:	87aa                	mv	a5,a0
   10446:	fef42223          	sw	a5,-28(s0)
   1044a:	fe442783          	lw	a5,-28(s0)
   1044e:	e799                	bnez	a5,1045c <main+0x2a>
   10450:	67c1                	lui	a5,0x10
   10452:	4e878513          	addi	a0,a5,1256 # 104e8 <_IO_stdin_used+0x4>
   10456:	3f29                	jal	10370 <printf@plt>
   10458:	4785                	li	a5,1
   1045a:	a041                	j	104da <main+0xa8>
   1045c:	fe042623          	sw	zero,-20(s0)
   10460:	a839                	j	1047e <main+0x4c>
   10462:	fec42783          	lw	a5,-20(s0)
   10466:	078a                	slli	a5,a5,0x2
   10468:	fe442703          	lw	a4,-28(s0)
   1046c:	97ba                	add	a5,a5,a4
   1046e:	fec42703          	lw	a4,-20(s0)
   10472:	c398                	sw	a4,0(a5)
   10474:	fec42783          	lw	a5,-20(s0)
   10478:	0785                	addi	a5,a5,1
   1047a:	fef42623          	sw	a5,-20(s0)
   1047e:	fec42703          	lw	a4,-20(s0)
   10482:	000f47b7          	lui	a5,0xf4
   10486:	23f78793          	addi	a5,a5,575 # f423f <__global_pointer$+0xe1a2f>
   1048a:	fce7dce3          	bge	a5,a4,10462 <main+0x30>
   1048e:	fe042423          	sw	zero,-24(s0)
   10492:	a805                	j	104c2 <main+0x90>
   10494:	fe842783          	lw	a5,-24(s0)
   10498:	078a                	slli	a5,a5,0x2
   1049a:	fe442703          	lw	a4,-28(s0)
   1049e:	97ba                	add	a5,a5,a4
   104a0:	439c                	lw	a5,0(a5)
   104a2:	fe842703          	lw	a4,-24(s0)
   104a6:	070a                	slli	a4,a4,0x2
   104a8:	fe442683          	lw	a3,-28(s0)
   104ac:	9736                	add	a4,a4,a3
   104ae:	00179693          	slli	a3,a5,0x1
   104b2:	83fd                	srli	a5,a5,0x1f
   104b4:	8fd5                	or	a5,a5,a3
   104b6:	c31c                	sw	a5,0(a4)
   104b8:	fe842783          	lw	a5,-24(s0)
   104bc:	0785                	addi	a5,a5,1
   104be:	fef42423          	sw	a5,-24(s0)
   104c2:	fe842703          	lw	a4,-24(s0)
   104c6:	000f47b7          	lui	a5,0xf4
   104ca:	23f78793          	addi	a5,a5,575 # f423f <__global_pointer$+0xe1a2f>
   104ce:	fce7d3e3          	bge	a5,a4,10494 <main+0x62>
   104d2:	fe442503          	lw	a0,-28(s0)
   104d6:	356d                	jal	10380 <free@plt>
   104d8:	4781                	li	a5,0
   104da:	853e                	mv	a0,a5
   104dc:	40f2                	lw	ra,28(sp)
   104de:	4462                	lw	s0,24(sp)
   104e0:	6105                	addi	sp,sp,32
   104e2:	8082                	ret
